(dp0
S'_StoreService:History'
p1
(lp2
(dp3
S'InstallIdentifier'
p4
S'com.plexapp.system.services'
p5
sS'InstallDate'
p6
cdatetime
datetime
p7
(S'\x07\xe1\x02\x12\x0f&&\x02S\xb9'
p8
tp9
Rp10
sS'InstallAction'
p11
S'Plug in installed (revision e034eba)'
p12
sasS'_AgentService:AgentInfo'
p13
(dp14
S'com.plexapp.agents.fanarttv'
p15
(lp16
(dp17
S'media_types'
p18
(lp19
S'Movie'
p20
asS'accepts_from'
p21
NsS'fallback_agent'
p22
NsS'contributes_to'
p23
(lp24
S'com.plexapp.agents.imdb'
p25
aS'com.plexapp.agents.themoviedb'
p26
asS'has_attribution'
p27
I01
sS'languages'
p28
(lp29
S'xn'
p30
asS'persist_stored_files'
p31
I01
sS'version'
p32
I0
sS'primary_provider'
p33
I00
sS'prefs'
p34
I01
sS'name'
p35
S'Fanart.tv'
p36
sa(dp37
S'media_types'
p38
(lp39
S'TV_Show'
p40
asS'accepts_from'
p41
NsS'fallback_agent'
p42
NsS'contributes_to'
p43
(lp44
S'com.plexapp.agents.thetvdb'
p45
aS'com.plexapp.agents.themoviedb'
p46
asg27
I01
sS'languages'
p47
(lp48
S'xn'
p49
asS'persist_stored_files'
p50
I01
sS'version'
p51
I0
sS'primary_provider'
p52
I00
sS'prefs'
p53
I01
sS'name'
p54
S'Fanart.tv'
p55
sa(dp56
S'media_types'
p57
(lp58
S'Artist'
p59
asS'accepts_from'
p60
NsS'fallback_agent'
p61
NsS'contributes_to'
p62
(lp63
S'com.plexapp.agents.lastfm'
p64
asg27
I01
sS'languages'
p65
(lp66
S'xn'
p67
asS'persist_stored_files'
p68
I01
sS'version'
p69
I0
sS'primary_provider'
p70
I00
sS'prefs'
p71
I01
sS'name'
p72
S'Fanart.tv'
p73
sa(dp74
S'media_types'
p75
(lp76
S'Album'
p77
asS'accepts_from'
p78
NsS'fallback_agent'
p79
NsS'contributes_to'
p80
(lp81
S'com.plexapp.agents.lastfm'
p82
asg27
I01
sS'languages'
p83
(lp84
S'xn'
p85
asS'persist_stored_files'
p86
I01
sS'version'
p87
I0
sS'primary_provider'
p88
I00
sS'prefs'
p89
I01
sS'name'
p90
S'Fanart.tv'
p91
sasS'com.plexapp.agents.none'
p92
(lp93
(dp94
S'media_types'
p95
(lp96
S'Movie'
p97
asS'accepts_from'
p98
NsS'fallback_agent'
p99
NsS'contributes_to'
p100
Nsg27
I00
sS'languages'
p101
(lp102
S'xn'
p103
asS'persist_stored_files'
p104
I01
sS'version'
p105
I0
sS'primary_provider'
p106
I01
sS'prefs'
p107
I00
sS'name'
p108
S'Personal Media'
p109
sa(dp110
S'media_types'
p111
(lp112
S'TV_Show'
p113
asS'accepts_from'
p114
NsS'fallback_agent'
p115
NsS'contributes_to'
p116
Nsg27
I00
sS'languages'
p117
(lp118
S'xn'
p119
asS'persist_stored_files'
p120
I01
sS'version'
p121
I0
sS'primary_provider'
p122
I01
sS'prefs'
p123
I00
sS'name'
p124
S'Personal Media Shows'
p125
sa(dp126
S'media_types'
p127
(lp128
S'Artist'
p129
asS'accepts_from'
p130
NsS'fallback_agent'
p131
NsS'contributes_to'
p132
Nsg27
I00
sS'languages'
p133
(lp134
S'xn'
p135
asS'persist_stored_files'
p136
I01
sS'version'
p137
I0
sS'primary_provider'
p138
I01
sS'prefs'
p139
I00
sS'name'
p140
S'Personal Media Artists'
p141
sa(dp142
S'media_types'
p143
(lp144
S'Album'
p145
asS'accepts_from'
p146
NsS'fallback_agent'
p147
NsS'contributes_to'
p148
Nsg27
I00
sS'languages'
p149
(lp150
S'xn'
p151
asS'persist_stored_files'
p152
I01
sS'version'
p153
I0
sS'primary_provider'
p154
I01
sS'prefs'
p155
I00
sS'name'
p156
S'Personal Media Albums'
p157
sa(dp158
S'media_types'
p159
(lp160
S'Photo'
p161
asS'accepts_from'
p162
NsS'fallback_agent'
p163
NsS'contributes_to'
p164
Nsg27
I00
sS'languages'
p165
(lp166
S'en'
p167
aS'ar'
p168
aS'bg'
p169
aS'ca'
p170
aS'cs'
p171
aS'cy'
p172
aS'da'
p173
aS'de'
p174
aS'el'
p175
aS'es'
p176
aS'et'
p177
aS'fa'
p178
aS'fi'
p179
aS'fr'
p180
aS'he'
p181
aS'hi'
p182
aS'hr'
p183
aS'ht'
p184
aS'hu'
p185
aS'id'
p186
aS'it'
p187
aS'ja'
p188
aS'ko'
p189
aS'lt'
p190
aS'lv'
p191
aS'ms'
p192
aS'mt'
p193
aS'nl'
p194
aS'no'
p195
aS'pl'
p196
aS'pt'
p197
aS'ro'
p198
aS'ru'
p199
aS'sk'
p200
aS'sv'
p201
aS'sl'
p202
aS'sr'
p203
aS'th'
p204
aS'tr'
p205
aS'uk'
p206
aS'ur'
p207
aS'vi'
p208
aS'zh'
p209
aS'xn'
p210
asS'persist_stored_files'
p211
I01
sS'version'
p212
I0
sS'primary_provider'
p213
I01
sS'prefs'
p214
I00
sS'name'
p215
S'Photos'
p216
sasS'com.plexapp.agents.plexmusic'
p217
(lp218
(dp219
S'media_types'
p220
(lp221
S'Artist'
p222
asS'accepts_from'
p223
NsS'fallback_agent'
p224
NsS'contributes_to'
p225
(lp226
S'com.plexapp.agents.localmedia'
p227
asg27
I01
sS'languages'
p228
(lp229
S'en'
p230
aS'ar'
p231
aS'bg'
p232
aS'zh'
p233
aS'hr'
p234
aS'cs'
p235
aS'da'
p236
aS'nl'
p237
aS'fi'
p238
aS'fr'
p239
aS'de'
p240
aS'el'
p241
aS'hu'
p242
aS'id'
p243
aS'it'
p244
aS'ja'
p245
aS'ko'
p246
aS'nn'
p247
aS'pl'
p248
aS'pt'
p249
aS'ro'
p250
aS'ru'
p251
aS'sr'
p252
aS'sk'
p253
aS'es'
p254
aS'sv'
p255
aS'th'
p256
aS'tr'
p257
aS'vi'
p258
asS'persist_stored_files'
p259
I01
sS'version'
p260
I0
sS'primary_provider'
p261
I01
sS'prefs'
p262
I01
sS'name'
p263
S'Plex Premium Music'
p264
sa(dp265
S'media_types'
p266
(lp267
S'Album'
p268
asS'accepts_from'
p269
NsS'fallback_agent'
p270
NsS'contributes_to'
p271
(lp272
S'com.plexapp.agents.localmedia'
p273
asg27
I01
sS'languages'
p274
(lp275
S'en'
p276
aS'ar'
p277
aS'bg'
p278
aS'zh'
p279
aS'hr'
p280
aS'cs'
p281
aS'da'
p282
aS'nl'
p283
aS'fi'
p284
aS'fr'
p285
aS'de'
p286
aS'el'
p287
aS'hu'
p288
aS'id'
p289
aS'it'
p290
aS'ja'
p291
aS'ko'
p292
aS'nn'
p293
aS'pl'
p294
aS'pt'
p295
aS'ro'
p296
aS'ru'
p297
aS'sr'
p298
aS'sk'
p299
aS'es'
p300
aS'sv'
p301
aS'th'
p302
aS'tr'
p303
aS'vi'
p304
asS'persist_stored_files'
p305
I01
sS'version'
p306
I0
sS'primary_provider'
p307
I01
sS'prefs'
p308
I01
sS'name'
p309
S'Plex Premium Music'
p310
sasS'com.plexapp.agents.opensubtitles'
p311
(lp312
(dp313
S'media_types'
p314
(lp315
S'Movie'
p316
asS'accepts_from'
p317
NsS'fallback_agent'
p318
NsS'contributes_to'
p319
(lp320
S'com.plexapp.agents.imdb'
p321
asg27
I00
sS'languages'
p322
(lp323
S'xn'
p324
asS'persist_stored_files'
p325
I01
sS'version'
p326
I0
sS'primary_provider'
p327
I00
sS'prefs'
p328
I01
sS'name'
p329
S'OpenSubtitles.org'
p330
sa(dp331
S'media_types'
p332
(lp333
S'TV_Show'
p334
asS'accepts_from'
p335
NsS'fallback_agent'
p336
NsS'contributes_to'
p337
(lp338
S'com.plexapp.agents.thetvdb'
p339
asg27
I00
sS'languages'
p340
(lp341
S'xn'
p342
asS'persist_stored_files'
p343
I01
sS'version'
p344
I0
sS'primary_provider'
p345
I00
sS'prefs'
p346
I01
sS'name'
p347
S'OpenSubtitles.org'
p348
sasS'com.plexapp.agents.imdb'
p349
(lp350
(dp351
S'media_types'
p352
(lp353
S'Movie'
p354
asS'accepts_from'
p355
(lp356
S'com.plexapp.agents.localmedia'
p357
asS'fallback_agent'
p358
NsS'contributes_to'
p359
(lp360
S'com.plexapp.agents.themoviedb'
p361
asg27
I01
sS'languages'
p362
(lp363
S'en'
p364
aS'sv'
p365
aS'fr'
p366
aS'es'
p367
aS'nl'
p368
aS'de'
p369
aS'it'
p370
aS'da'
p371
aS'ar'
p372
aS'ca'
p373
aS'zh'
p374
aS'cs'
p375
aS'et'
p376
aS'fi'
p377
aS'el'
p378
aS'he'
p379
aS'hi'
p380
aS'hu'
p381
aS'id'
p382
aS'ja'
p383
aS'ko'
p384
aS'lv'
p385
aS'no'
p386
aS'fa'
p387
aS'pl'
p388
aS'pt'
p389
aS'ro'
p390
aS'ru'
p391
aS'sk'
p392
aS'th'
p393
aS'tr'
p394
aS'uk'
p395
aS'vi'
p396
asS'persist_stored_files'
p397
I01
sS'version'
p398
I0
sS'primary_provider'
p399
I01
sS'prefs'
p400
I01
sS'name'
p401
S'Plex Movie'
p402
sasS'com.plexapp.agents.lyricfind'
p403
(lp404
(dp405
S'media_types'
p406
(lp407
S'Album'
p408
asS'accepts_from'
p409
NsS'fallback_agent'
p410
NsS'contributes_to'
p411
(lp412
S'com.plexapp.agents.plexmusic'
p413
aS'com.plexapp.agents.localmedia'
p414
aS'com.plexapp.agents.lastfm'
p415
asg27
I01
sS'languages'
p416
(lp417
S'xn'
p418
asS'persist_stored_files'
p419
I01
sS'version'
p420
I0
sS'primary_provider'
p421
I00
sS'prefs'
p422
I00
sS'name'
p423
S'LyricFind'
p424
sasS'com.plexapp.agents.thetvdb'
p425
(lp426
(dp427
S'media_types'
p428
(lp429
S'TV_Show'
p430
asS'accepts_from'
p431
NsS'fallback_agent'
p432
NsS'contributes_to'
p433
Nsg27
I01
sS'languages'
p434
(lp435
S'en'
p436
aS'fr'
p437
aS'zh'
p438
aS'sv'
p439
aS'no'
p440
aS'da'
p441
aS'fi'
p442
aS'nl'
p443
aS'de'
p444
aS'it'
p445
aS'es'
p446
aS'pl'
p447
aS'hu'
p448
aS'el'
p449
aS'tr'
p450
aS'ru'
p451
aS'he'
p452
aS'ja'
p453
aS'pt'
p454
aS'cs'
p455
aS'ko'
p456
aS'sl'
p457
aS'hr'
p458
asS'persist_stored_files'
p459
I01
sS'version'
p460
I0
sS'primary_provider'
p461
I01
sS'prefs'
p462
I01
sS'name'
p463
S'TheTVDB'
p464
sasS'com.plexapp.agents.localmedia'
p465
(lp466
(dp467
S'media_types'
p468
(lp469
S'Movie'
p470
asS'accepts_from'
p471
NsS'fallback_agent'
p472
NsS'contributes_to'
p473
(lp474
S'com.plexapp.agents.imdb'
p475
aS'com.plexapp.agents.none'
p476
asg27
I00
sS'languages'
p477
(lp478
S'xn'
p479
asS'persist_stored_files'
p480
I00
sS'version'
p481
I0
sS'primary_provider'
p482
I00
sS'prefs'
p483
I01
sS'name'
p484
S'Local Media Assets (Movies)'
p485
sa(dp486
S'media_types'
p487
(lp488
S'TV_Show'
p489
asS'accepts_from'
p490
NsS'fallback_agent'
p491
NsS'contributes_to'
p492
(lp493
S'com.plexapp.agents.thetvdb'
p494
aS'com.plexapp.agents.none'
p495
asg27
I00
sS'languages'
p496
(lp497
S'xn'
p498
asS'persist_stored_files'
p499
I00
sS'version'
p500
I0
sS'primary_provider'
p501
I00
sS'prefs'
p502
I01
sS'name'
p503
S'Local Media Assets (TV)'
p504
sa(dp505
S'media_types'
p506
(lp507
S'Artist'
p508
asS'accepts_from'
p509
NsS'fallback_agent'
p510
NsS'contributes_to'
p511
(lp512
S'com.plexapp.agents.discogs'
p513
aS'com.plexapp.agents.lastfm'
p514
aS'com.plexapp.agents.plexmusic'
p515
aS'com.plexapp.agents.none'
p516
asg27
I00
sS'languages'
p517
(lp518
S'xn'
p519
asS'persist_stored_files'
p520
I00
sS'version'
p521
I0
sS'primary_provider'
p522
I00
sS'prefs'
p523
I01
sS'name'
p524
S'Local Media Assets (Artists)'
p525
sa(dp526
S'media_types'
p527
(lp528
S'Artist'
p529
asS'accepts_from'
p530
NsS'fallback_agent'
p531
NsS'contributes_to'
p532
(lp533
S'com.plexapp.agents.plexmusic'
p534
asg27
I00
sS'languages'
p535
g518
sS'persist_stored_files'
p536
I00
sS'version'
p537
I2
sS'primary_provider'
p538
I00
sS'prefs'
p539
I01
sS'name'
p540
S'Local Media Assets (Artists)'
p541
sa(dp542
S'media_types'
p543
(lp544
S'Album'
p545
asS'accepts_from'
p546
NsS'fallback_agent'
p547
NsS'contributes_to'
p548
(lp549
S'com.plexapp.agents.discogs'
p550
aS'com.plexapp.agents.lastfm'
p551
aS'com.plexapp.agents.plexmusic'
p552
aS'com.plexapp.agents.none'
p553
asg27
I00
sS'languages'
p554
(lp555
S'xn'
p556
asS'persist_stored_files'
p557
I00
sS'version'
p558
I0
sS'primary_provider'
p559
I00
sS'prefs'
p560
I01
sS'name'
p561
S'Local Media Assets (Albums)'
p562
sasS'com.plexapp.agents.plexthememusic'
p563
(lp564
(dp565
S'media_types'
p566
(lp567
S'TV_Show'
p568
asS'accepts_from'
p569
NsS'fallback_agent'
p570
NsS'contributes_to'
p571
(lp572
S'com.plexapp.agents.thetvdb'
p573
aS'com.plexapp.agents.thetvdbdvdorder'
p574
aS'com.plexapp.agents.themoviedb'
p575
asg27
I00
sS'languages'
p576
(lp577
S'xn'
p578
asS'persist_stored_files'
p579
I01
sS'version'
p580
I0
sS'primary_provider'
p581
I00
sS'prefs'
p582
I00
sS'name'
p583
S'Plex Theme Music'
p584
sasS'com.plexapp.agents.themoviedb'
p585
(lp586
(dp587
S'media_types'
p588
(lp589
S'Movie'
p590
asS'accepts_from'
p591
(lp592
S'com.plexapp.agents.localmedia'
p593
asS'fallback_agent'
p594
NsS'contributes_to'
p595
Nsg27
I01
sS'languages'
p596
(lp597
S'en'
p598
aS'cs'
p599
aS'da'
p600
aS'de'
p601
aS'el'
p602
aS'es'
p603
aS'fi'
p604
aS'fr'
p605
aS'he'
p606
aS'hr'
p607
aS'hu'
p608
aS'it'
p609
aS'lv'
p610
aS'nl'
p611
aS'no'
p612
aS'pl'
p613
aS'pt'
p614
aS'ru'
p615
aS'sk'
p616
aS'sv'
p617
aS'th'
p618
aS'tr'
p619
aS'vi'
p620
aS'zh'
p621
aS'ko'
p622
asS'persist_stored_files'
p623
I01
sS'version'
p624
I0
sS'primary_provider'
p625
I01
sS'prefs'
p626
I01
sS'name'
p627
S'The Movie Database'
p628
sa(dp629
S'media_types'
p630
(lp631
S'TV_Show'
p632
asS'accepts_from'
p633
(lp634
S'com.plexapp.agents.localmedia'
p635
aS'com.plexapp.agents.thetvdb'
p636
asS'fallback_agent'
p637
NsS'contributes_to'
p638
(lp639
S'com.plexapp.agents.thetvdb'
p640
asg27
I01
sS'languages'
p641
g597
sS'persist_stored_files'
p642
I01
sS'version'
p643
I0
sS'primary_provider'
p644
I01
sS'prefs'
p645
I01
sS'name'
p646
S'The Movie Database'
p647
sasS'com.plexapp.agents.movieposterdb'
p648
(lp649
(dp650
S'media_types'
p651
(lp652
S'Movie'
p653
asS'accepts_from'
p654
NsS'fallback_agent'
p655
NsS'contributes_to'
p656
(lp657
S'com.plexapp.agents.imdb'
p658
asg27
I01
sS'languages'
p659
(lp660
S'xn'
p661
asS'persist_stored_files'
p662
I01
sS'version'
p663
I0
sS'primary_provider'
p664
I00
sS'prefs'
p665
I00
sS'name'
p666
S'CineMaterial'
p667
sasS'com.plexapp.agents.htbackdrops'
p668
(lp669
(dp670
S'media_types'
p671
(lp672
S'Artist'
p673
asS'accepts_from'
p674
NsS'fallback_agent'
p675
NsS'contributes_to'
p676
(lp677
S'com.plexapp.agents.lastfm'
p678
asg27
I01
sS'languages'
p679
(lp680
S'ab'
p681
aS'aa'
p682
aS'af'
p683
aS'ak'
p684
aS'sq'
p685
aS'am'
p686
aS'ar'
p687
aS'an'
p688
aS'hy'
p689
aS'as'
p690
aS'av'
p691
aS'ae'
p692
aS'ay'
p693
aS'az'
p694
aS'bm'
p695
aS'ba'
p696
aS'eu'
p697
aS'be'
p698
aS'bn'
p699
aS'bh'
p700
aS'bi'
p701
aS'bs'
p702
aS'pb'
p703
aS'br'
p704
aS'bg'
p705
aS'my'
p706
aS'ca'
p707
aS'ch'
p708
aS'ce'
p709
aS'ny'
p710
aS'zh'
p711
aS'cu'
p712
aS'cv'
p713
aS'kw'
p714
aS'co'
p715
aS'cr'
p716
aS'hr'
p717
aS'cs'
p718
aS'da'
p719
aS'dv'
p720
aS'nl'
p721
aS'dz'
p722
aS'en'
p723
aS'eo'
p724
aS'et'
p725
aS'ee'
p726
aS'fo'
p727
aS'fj'
p728
aS'fi'
p729
aS'fr'
p730
aS'fy'
p731
aS'ff'
p732
aS'gd'
p733
aS'gl'
p734
aS'lg'
p735
aS'ka'
p736
aS'de'
p737
aS'el'
p738
aS'gn'
p739
aS'gu'
p740
aS'ht'
p741
aS'ha'
p742
aS'he'
p743
aS'hz'
p744
aS'hi'
p745
aS'ho'
p746
aS'hu'
p747
aS'is'
p748
aS'io'
p749
aS'ig'
p750
aS'id'
p751
aS'ia'
p752
aS'ie'
p753
aS'iu'
p754
aS'ik'
p755
aS'ga'
p756
aS'it'
p757
aS'ja'
p758
aS'jv'
p759
aS'kl'
p760
aS'kn'
p761
aS'kr'
p762
aS'ks'
p763
aS'kk'
p764
aS'km'
p765
aS'ki'
p766
aS'rw'
p767
aS'ky'
p768
aS'kv'
p769
aS'kg'
p770
aS'ko'
p771
aS'kj'
p772
aS'ku'
p773
aS'lo'
p774
aS'la'
p775
aS'lv'
p776
aS'li'
p777
aS'ln'
p778
aS'lt'
p779
aS'lu'
p780
aS'lb'
p781
aS'mk'
p782
aS'mg'
p783
aS'ms'
p784
aS'ml'
p785
aS'mt'
p786
aS'gv'
p787
aS'mi'
p788
aS'mr'
p789
aS'mh'
p790
aS'mo'
p791
aS'mn'
p792
aS'na'
p793
aS'nv'
p794
aS'ng'
p795
aS'ne'
p796
aS'xn'
p797
aS'nd'
p798
aS'no'
p799
aS'nb'
p800
aS'nn'
p801
aS'oc'
p802
aS'oj'
p803
aS'or'
p804
aS'om'
p805
aS'os'
p806
aS'pi'
p807
aS'pa'
p808
aS'fa'
p809
aS'pl'
p810
aS'pt'
p811
aS'ps'
p812
aS'qu'
p813
aS'rm'
p814
aS'ro'
p815
aS'rn'
p816
aS'ru'
p817
aS'se'
p818
aS'sm'
p819
aS'sg'
p820
aS'sa'
p821
aS'sc'
p822
aS'sr'
p823
aS'sn'
p824
aS'ii'
p825
aS'sd'
p826
aS'si'
p827
aS'sk'
p828
aS'sl'
p829
aS'so'
p830
aS'st'
p831
aS'nr'
p832
aS'es'
p833
aS'su'
p834
aS'sw'
p835
aS'ss'
p836
aS'sv'
p837
aS'tl'
p838
aS'ty'
p839
aS'tg'
p840
aS'ta'
p841
aS'tt'
p842
aS'te'
p843
aS'th'
p844
aS'bo'
p845
aS'ti'
p846
aS'to'
p847
aS'ts'
p848
aS'tn'
p849
aS'tr'
p850
aS'tk'
p851
aS'tw'
p852
aS'ug'
p853
aS'uk'
p854
aS'ur'
p855
aS'uz'
p856
aS've'
p857
aS'vi'
p858
aS'vo'
p859
aS'wa'
p860
aS'cy'
p861
aS'wo'
p862
aS'xh'
p863
aS'yi'
p864
aS'yo'
p865
aS'za'
p866
aS'zu'
p867
asS'persist_stored_files'
p868
I01
sS'version'
p869
I0
sS'primary_provider'
p870
I00
sS'prefs'
p871
I00
sS'name'
p872
S'Home Theater Backdrops'
p873
sasS'com.plexapp.agents.lastfm'
p874
(lp875
(dp876
S'media_types'
p877
(lp878
S'Artist'
p879
asS'accepts_from'
p880
NsS'fallback_agent'
p881
NsS'contributes_to'
p882
Nsg27
I01
sS'languages'
p883
(lp884
S'en'
p885
aS'sv'
p886
aS'fr'
p887
aS'es'
p888
aS'de'
p889
aS'pl'
p890
aS'it'
p891
aS'pt'
p892
aS'ja'
p893
aS'tr'
p894
aS'ru'
p895
aS'zh'
p896
asS'persist_stored_files'
p897
I01
sS'version'
p898
I0
sS'primary_provider'
p899
I01
sS'prefs'
p900
I01
sS'name'
p901
S'Last.fm'
p902
sa(dp903
S'media_types'
p904
(lp905
S'Album'
p906
asS'accepts_from'
p907
NsS'fallback_agent'
p908
NsS'contributes_to'
p909
Nsg27
I01
sS'languages'
p910
(lp911
S'en'
p912
aS'sv'
p913
aS'fr'
p914
aS'es'
p915
aS'de'
p916
aS'pl'
p917
aS'it'
p918
aS'pt'
p919
aS'ja'
p920
aS'tr'
p921
aS'ru'
p922
aS'zh'
p923
asS'persist_stored_files'
p924
I01
sS'version'
p925
I0
sS'primary_provider'
p926
I01
sS'prefs'
p927
I01
sS'name'
p928
S'Last.fm'
p929
sass.